target datalayout = "e-m:e-p270:32:32-p271:32:32-p272:64:64-i64:64-i128:128-f80:128-n8:16:32:64-S128"
target triple = "x86_64-pc-linux-gnu"

%struct.URLContext = type { ptr, ptr, ptr, ptr, i32, i32, i32, i32, %struct.AVIOInterruptCB, i64, ptr, ptr, i32 }
%struct.AVIOInterruptCB = type { ptr, ptr }
%struct.RTMPContext = type { ptr, ptr, [2 x ptr], [2 x i32], i32, i32, i32, ptr, i32, ptr, ptr, i32, i32, ptr, i32, i32, i32, %struct.RTMPPacket, i32, i64, i64, i32, i32, i32, i32, i32, [11 x i8], i32, i32, ptr, ptr, ptr, i32, i32, ptr, ptr, [42 x i8], ptr, ptr, i32, i32, i32, i32, ptr, i32, i32, i32, i32, i32, double, i32, ptr, [50 x i8], [50 x i8], [500 x i8], i32, i32 }
%struct.RTMPPacket = type { i32, i32, i32, i32, i32, ptr, i32, i32, i32 }

@.str.204 = private unnamed_addr constant [58 x i8] c"Seek on stream index %d at timestamp %ld with flags %08x\0A\00", align 1
@.str.205 = private unnamed_addr constant [81 x i8] c"Unable to send seek command on stream index %d at timestamp %ld with flags %08x\0A\00", align 1
@.str.206 = private unnamed_addr constant [40 x i8] c"Sending seek command for timestamp %ld\0A\00", align 1
@.str.207 = private unnamed_addr constant [5 x i8] c"seek\00", align 1

; Function Attrs: nounwind uwtable
define internal i32 @gen_seek(ptr noundef %0, ptr noundef %1, i64 noundef %2) #0 {
  %4 = alloca i32, align 4
  %5 = alloca ptr, align 8
  %6 = alloca ptr, align 8
  %7 = alloca i64, align 8
  %8 = alloca %struct.RTMPPacket, align 8
  %9 = alloca ptr, align 8
  %10 = alloca i32, align 4
  %11 = alloca i32, align 4
  store ptr %0, ptr %5, align 8, !tbaa !4
  store ptr %1, ptr %6, align 8, !tbaa !22
  store i64 %2, ptr %7, align 8, !tbaa !85
  call void @llvm.lifetime.start.p0(i64 48, ptr %8) #12
  call void @llvm.lifetime.start.p0(i64 8, ptr %9) #12
  call void @llvm.lifetime.start.p0(i64 4, ptr %10) #12
  %12 = load ptr, ptr %5, align 8, !tbaa !4
  %13 = load i64, ptr %7, align 8, !tbaa !85
  call void (ptr, i32, ptr, ...) @av_log(ptr noundef %12, i32 noundef 48, ptr noundef @.str.206, i64 noundef %13)
  %14 = call i32 @ff_rtmp_packet_create(ptr noundef %8, i32 noundef 3, i32 noundef 20, i32 noundef 0, i32 noundef 26)
  store i32 %14, ptr %10, align 4, !tbaa !11
  %15 = icmp slt i32 %14, 0
  br i1 %15, label %16, label %18

16:                                               ; preds = %3
  %17 = load i32, ptr %10, align 4, !tbaa !11
  store i32 %17, ptr %4, align 4
  store i32 1, ptr %11, align 4
  br label %29

18:                                               ; preds = %3
  %19 = load ptr, ptr %6, align 8, !tbaa !22
  %20 = getelementptr inbounds nuw %struct.RTMPContext, ptr %19, i32 0, i32 12
  %21 = load i32, ptr %20, align 4, !tbaa !72
  %22 = getelementptr inbounds nuw %struct.RTMPPacket, ptr %8, i32 0, i32 4
  store i32 %21, ptr %22, align 8, !tbaa !148
  %23 = getelementptr inbounds nuw %struct.RTMPPacket, ptr %8, i32 0, i32 5
  %24 = load ptr, ptr %23, align 8, !tbaa !90
  store ptr %24, ptr %9, align 8, !tbaa !9
  call void @ff_amf_write_string(ptr noundef %9, ptr noundef @.str.207)
  call void @ff_amf_write_number(ptr noundef %9, double noundef 0.000000e+00)
  call void @ff_amf_write_null(ptr noundef %9)
  %25 = load i64, ptr %7, align 8, !tbaa !85
  %26 = sitofp i64 %25 to double
  call void @ff_amf_write_number(ptr noundef %9, double noundef %26)
  %27 = load ptr, ptr %6, align 8, !tbaa !22
  %28 = call i32 @rtmp_send_packet(ptr noundef %27, ptr noundef %8, i32 noundef 1)
  store i32 %28, ptr %4, align 4
  store i32 1, ptr %11, align 4
  br label %29

29:                                               ; preds = %18, %16
  call void @llvm.lifetime.end.p0(i64 4, ptr %10) #12
  call void @llvm.lifetime.end.p0(i64 8, ptr %9) #12
  call void @llvm.lifetime.end.p0(i64 48, ptr %8) #12
  %30 = load i32, ptr %4, align 4
  ret i32 %30
}

; Function Attrs: nounwind uwtable
define internal i64 @rtmp_seek(ptr noundef %0, i32 noundef %1, i64 noundef %2, i32 noundef %3) #0 {
  %5 = alloca i64, align 8
  %6 = alloca ptr, align 8
  %7 = alloca i32, align 4
  %8 = alloca i64, align 8
  %9 = alloca i32, align 4
  %10 = alloca ptr, align 8
  %11 = alloca ptr, align 8
  %12 = alloca i32, align 4
  %13 = alloca i32, align 4
  store ptr %0, ptr %6, align 8, !tbaa !83
  store i32 %1, ptr %7, align 4, !tbaa !11
  store i64 %2, ptr %8, align 8, !tbaa !85
  store i32 %3, ptr %9, align 4, !tbaa !11
  call void @llvm.lifetime.start.p0(i64 8, ptr %10) #12
  %14 = load ptr, ptr %6, align 8, !tbaa !83
  store ptr %14, ptr %10, align 8, !tbaa !4
  call void @llvm.lifetime.start.p0(i64 8, ptr %11) #12
  %15 = load ptr, ptr %10, align 8, !tbaa !4
  %16 = getelementptr inbounds nuw %struct.URLContext, ptr %15, i32 0, i32 2
  %17 = load ptr, ptr %16, align 8, !tbaa !16
  store ptr %17, ptr %11, align 8, !tbaa !22
  call void @llvm.lifetime.start.p0(i64 4, ptr %12) #12
  %18 = load ptr, ptr %10, align 8, !tbaa !4
  %19 = load i32, ptr %7, align 4, !tbaa !11
  %20 = load i64, ptr %8, align 8, !tbaa !85
  %21 = load i32, ptr %9, align 4, !tbaa !11
  call void (ptr, i32, ptr, ...) @av_log(ptr noundef %18, i32 noundef 48, ptr noundef @.str.204, i32 noundef %19, i64 noundef %20, i32 noundef %21)
  %22 = load ptr, ptr %10, align 8, !tbaa !4
  %23 = load ptr, ptr %11, align 8, !tbaa !22
  %24 = load i64, ptr %8, align 8, !tbaa !85
  %25 = call i32 @gen_seek(ptr noundef %22, ptr noundef %23, i64 noundef %24)
  store i32 %25, ptr %12, align 4, !tbaa !11
  %26 = icmp slt i32 %25, 0
  br i1 %26, label %27, label %34

27:                                               ; preds = %4
  %28 = load ptr, ptr %10, align 8, !tbaa !4
  %29 = load i32, ptr %7, align 4, !tbaa !11
  %30 = load i64, ptr %8, align 8, !tbaa !85
  %31 = load i32, ptr %9, align 4, !tbaa !11
  call void (ptr, i32, ptr, ...) @av_log(ptr noundef %28, i32 noundef 16, ptr noundef @.str.205, i32 noundef %29, i64 noundef %30, i32 noundef %31)
  %32 = load i32, ptr %12, align 4, !tbaa !11
  %33 = sext i32 %32 to i64
  store i64 %33, ptr %5, align 8
  store i32 1, ptr %13, align 4
  br label %43

34:                                               ; preds = %4
  %35 = load ptr, ptr %11, align 8, !tbaa !22
  %36 = getelementptr inbounds nuw %struct.RTMPContext, ptr %35, i32 0, i32 14
  %37 = load i32, ptr %36, align 8, !tbaa !60
  %38 = load ptr, ptr %11, align 8, !tbaa !22
  %39 = getelementptr inbounds nuw %struct.RTMPContext, ptr %38, i32 0, i32 15
  store i32 %37, ptr %39, align 4, !tbaa !61
  %40 = load ptr, ptr %11, align 8, !tbaa !22
  %41 = getelementptr inbounds nuw %struct.RTMPContext, ptr %40, i32 0, i32 11
  store i32 4, ptr %41, align 8, !tbaa !38
  %42 = load i64, ptr %8, align 8, !tbaa !85
  store i64 %42, ptr %5, align 8
  store i32 1, ptr %13, align 4
  br label %43

43:                                               ; preds = %34, %27
  call void @llvm.lifetime.end.p0(i64 4, ptr %12) #12
  call void @llvm.lifetime.end.p0(i64 8, ptr %11) #12
  call void @llvm.lifetime.end.p0(i64 8, ptr %10) #12
  %44 = load i64, ptr %5, align 8
  ret i64 %44
}