; Function Attrs: nounwind uwtable
define internal i64 @rtmp_seek(ptr noundef %0, i32 noundef %1, i64 noundef %2, i32 noundef %3) #0 {
  %5 = alloca %struct.RTMPPacket, align 8
  %6 = alloca ptr, align 8
  %7 = getelementptr inbounds nuw i8, ptr %0, i64 16
  %8 = load ptr, ptr %7, align 8, !tbaa !4
  tail call void (ptr, i32, ptr, ...) @av_log(ptr noundef %0, i32 noundef 48, ptr noundef nonnull @.str.204, i32 noundef %1, i64 noundef %2, i32 noundef %3) #11
  call void @llvm.lifetime.start.p0(i64 48, ptr nonnull %5) #11
  call void @llvm.lifetime.start.p0(i64 8, ptr nonnull %6) #11
  tail call void (ptr, i32, ptr, ...) @av_log(ptr noundef %0, i32 noundef 48, ptr noundef nonnull @.str.206, i64 noundef %2) #11
  %9 = call i32 @ff_rtmp_packet_create(ptr noundef nonnull %5, i32 noundef 3, i32 noundef 20, i32 noundef 0, i32 noundef 26) #11
  %10 = icmp slt i32 %9, 0
  br i1 %10, label %gen_seek.exit.thread, label %gen_seek.exit

gen_seek.exit.thread:                             ; preds = %4
  call void @llvm.lifetime.end.p0(i64 8, ptr nonnull %6) #11
  call void @llvm.lifetime.end.p0(i64 48, ptr nonnull %5) #11
  br label %19

gen_seek.exit:                                    ; preds = %4
  %11 = getelementptr inbounds nuw i8, ptr %8, i64 92
  %12 = load i32, ptr %11, align 4, !tbaa !103
  %13 = getelementptr inbounds nuw i8, ptr %5, i64 16
  store i32 %12, ptr %13, align 8, !tbaa !107
  %14 = getelementptr inbounds nuw i8, ptr %5, i64 24
  %15 = load ptr, ptr %14, align 8, !tbaa !63
  store ptr %15, ptr %6, align 8, !tbaa !31
  call void @ff_amf_write_string(ptr noundef nonnull %6, ptr noundef nonnull @.str.207) #11
  call void @ff_amf_write_number(ptr noundef nonnull %6, double noundef 0.000000e+00) #11
  call void @ff_amf_write_null(ptr noundef nonnull %6) #11
  %16 = sitofp i64 %2 to double
  call void @ff_amf_write_number(ptr noundef nonnull %6, double noundef %16) #11
  %17 = call fastcc i32 @rtmp_send_packet(ptr noundef %8, ptr noundef nonnull %5, i32 noundef 1)
  call void @llvm.lifetime.end.p0(i64 8, ptr nonnull %6) #11
  call void @llvm.lifetime.end.p0(i64 48, ptr nonnull %5) #11
  %18 = icmp slt i32 %17, 0
  br i1 %18, label %19, label %21

19:                                               ; preds = %gen_seek.exit.thread, %gen_seek.exit
  %.0.i20 = phi i32 [ %9, %gen_seek.exit.thread ], [ %17, %gen_seek.exit ]
  call void (ptr, i32, ptr, ...) @av_log(ptr noundef nonnull %0, i32 noundef 16, ptr noundef nonnull @.str.205, i32 noundef %1, i64 noundef %2, i32 noundef %3) #11
  %20 = sext i32 %.0.i20 to i64
  br label %26

21:                                               ; preds = %gen_seek.exit
  %22 = getelementptr inbounds nuw i8, ptr %8, i64 104
  %23 = load i32, ptr %22, align 8, !tbaa !85
  %24 = getelementptr inbounds nuw i8, ptr %8, i64 108
  store i32 %23, ptr %24, align 4, !tbaa !86
  %25 = getelementptr inbounds nuw i8, ptr %8, i64 88
  store i32 4, ptr %25, align 8, !tbaa !42
  br label %26

26:                                               ; preds = %21, %19
  %.0 = phi i64 [ %20, %19 ], [ %2, %21 ]
  ret i64 %.0
}